target datalayout = "e-m:e-p270:32:32-p271:32:32-p272:64:64-i64:64-i128:128-f80:128-n8:16:32:64-S128"
target triple = "x86_64-pc-linux-gnu"

%struct._zval_struct = type { %union._zend_value, %union.anon, %union.anon.2 }
%union._zend_value = type { i64 }
%union.anon = type { i32 }
%union.anon.2 = type { i32 }
%union._zend_function = type { %struct._zend_op_array }
%struct._zend_op_array = type { i8, [3 x i8], i32, ptr, ptr, ptr, i32, i32, ptr, ptr, ptr, ptr, i32, ptr, i32, i32, i32, ptr, ptr, ptr, ptr, ptr, i32, i32, ptr, ptr, ptr, i32, i32, i32, i32, ptr, ptr, [6 x ptr] }
%struct._zend_array = type { %struct._zend_refcounted_h, %union.anon.6, i32, %union.anon.8, i32, i32, i32, i32, i64, ptr }
%struct._zend_refcounted_h = type { i32, %union.anon.4 }
%union.anon.4 = type { i32 }
%union.anon.6 = type { i32 }
%union.anon.8 = type { ptr }
%struct._zend_closure = type { %struct._zend_object, %union._zend_function, %struct._zval_struct, ptr, ptr }
%struct._zend_object = type { %struct._zend_refcounted_h, i32, i32, ptr, ptr, ptr, [1 x %struct._zval_struct] }
%struct.anon.3 = type { i8, [3 x i8], i32, ptr, ptr, ptr, i32, i32, ptr, ptr, ptr, ptr, i32, ptr }
%struct._zend_string = type { %struct._zend_refcounted_h, i64, i64, [1 x i8] }
%struct._zend_class_entry = type { i8, ptr, %union.anon.5, i32, i32, i32, i32, ptr, ptr, ptr, %struct._zend_array, %struct._zend_array, %struct._zend_array, ptr, ptr, ptr, ptr, ptr, ptr, ptr, ptr, ptr, ptr, ptr, ptr, ptr, ptr, ptr, ptr, ptr, ptr, ptr, %union.anon.9, ptr, ptr, ptr, ptr, i32, i32, i32, i32, %union.anon.10, ptr, ptr, ptr, ptr, i32, ptr, ptr, %union.anon.11 }
%union.anon.5 = type { ptr }
%union.anon.9 = type { ptr }
%union.anon.10 = type { ptr }
%union.anon.11 = type { %struct.anon.12 }
%struct.anon.12 = type { ptr, i32, i32 }
%struct.anon.0 = type { i8, i8, %union.anon.1 }
%union.anon.1 = type { i16 }

@.str.3 = private unnamed_addr constant [44 x i8] c"Cannot bind an instance to a static closure\00", align 1
@.str.4 = private unnamed_addr constant [50 x i8] c"Cannot bind method %s::%s() to object of class %s\00", align 1
@.str.5 = private unnamed_addr constant [30 x i8] c"Cannot unbind $this of method\00", align 1
@.str.6 = private unnamed_addr constant [43 x i8] c"Cannot unbind $this of closure using $this\00", align 1
@.str.7 = private unnamed_addr constant [50 x i8] c"Cannot bind closure to scope of internal class %s\00", align 1
@.str.8 = private unnamed_addr constant [53 x i8] c"Cannot rebind scope of closure created from function\00", align 1
@.str.9 = private unnamed_addr constant [51 x i8] c"Cannot rebind scope of closure created from method\00", align 1

; Function Attrs: alwaysinline nounwind uwtable
define internal zeroext i8 @zval_get_type(ptr noundef %0) #6 {
  %2 = alloca ptr, align 8
  store ptr %0, ptr %2, align 8, !tbaa !9
  %3 = load ptr, ptr %2, align 8, !tbaa !9
  %4 = getelementptr inbounds nuw %struct._zval_struct, ptr %3, i32 0, i32 1
  %5 = getelementptr inbounds nuw %struct.anon.0, ptr %4, i32 0, i32 0
  %6 = load i8, ptr %5, align 8, !tbaa !20
  ret i8 %6
}

; Function Attrs: alwaysinline nounwind uwtable
define internal zeroext i1 @instanceof_function(ptr noundef %0, ptr noundef %1) #6 {
  %3 = alloca ptr, align 8
  %4 = alloca ptr, align 8
  store ptr %0, ptr %3, align 8, !tbaa !47
  store ptr %1, ptr %4, align 8, !tbaa !47
  %5 = load ptr, ptr %3, align 8, !tbaa !47
  %6 = load ptr, ptr %4, align 8, !tbaa !47
  %7 = icmp eq ptr %5, %6
  br i1 %7, label %12, label %8

8:                                                ; preds = %2
  %9 = load ptr, ptr %3, align 8, !tbaa !47
  %10 = load ptr, ptr %4, align 8, !tbaa !47
  %11 = call zeroext i1 @instanceof_function_slow(ptr noundef %9, ptr noundef %10)
  br label %12

12:                                               ; preds = %8, %2
  %13 = phi i1 [ true, %2 ], [ %11, %8 ]
  ret i1 %13
}

; Function Attrs: nounwind uwtable
define internal zeroext i1 @zend_valid_closure_binding(ptr noundef %0, ptr noundef %1, ptr noundef %2) #0 {
  %4 = alloca i1, align 1
  %5 = alloca ptr, align 8
  %6 = alloca ptr, align 8
  %7 = alloca ptr, align 8
  %8 = alloca ptr, align 8
  %9 = alloca i8, align 1
  %10 = alloca i32, align 4
  store ptr %0, ptr %5, align 8, !tbaa !40
  store ptr %1, ptr %6, align 8, !tbaa !9
  store ptr %2, ptr %7, align 8, !tbaa !47
  call void @llvm.lifetime.start.p0(i64 8, ptr %8) #11
  %11 = load ptr, ptr %5, align 8, !tbaa !40
  %12 = getelementptr inbounds nuw %struct._zend_closure, ptr %11, i32 0, i32 1
  store ptr %12, ptr %8, align 8, !tbaa !17
  call void @llvm.lifetime.start.p0(i64 1, ptr %9) #11
  %13 = load ptr, ptr %8, align 8, !tbaa !17
  %14 = getelementptr inbounds nuw %struct.anon.3, ptr %13, i32 0, i32 2
  %15 = load i32, ptr %14, align 4, !tbaa !20
  %16 = and i32 %15, 8388608
  %17 = icmp ne i32 %16, 0
  %18 = zext i1 %17 to i8
  store i8 %18, ptr %9, align 1, !tbaa !23
  %19 = load ptr, ptr %6, align 8, !tbaa !9
  %20 = icmp ne ptr %19, null
  br i1 %20, label %21, label %69

21:                                               ; preds = %3
  %22 = load ptr, ptr %8, align 8, !tbaa !17
  %23 = getelementptr inbounds nuw %struct.anon.3, ptr %22, i32 0, i32 2
  %24 = load i32, ptr %23, align 4, !tbaa !20
  %25 = and i32 %24, 16
  %26 = icmp ne i32 %25, 0
  br i1 %26, label %27, label %28

27:                                               ; preds = %21
  call void (i32, ptr, ...) @zend_error(i32 noundef 2, ptr noundef @.str.3)
  store i1 false, ptr %4, align 1
  store i32 1, ptr %10, align 4
  br label %141

28:                                               ; preds = %21
  %29 = load i8, ptr %9, align 1, !tbaa !23, !range !54, !noundef !55
  %30 = trunc i8 %29 to i1
  br i1 %30, label %31, label %68

31:                                               ; preds = %28
  %32 = load ptr, ptr %8, align 8, !tbaa !17
  %33 = getelementptr inbounds nuw %struct.anon.3, ptr %32, i32 0, i32 4
  %34 = load ptr, ptr %33, align 8, !tbaa !20
  %35 = icmp ne ptr %34, null
  br i1 %35, label %36, label %68

36:                                               ; preds = %31
  %37 = load ptr, ptr %6, align 8, !tbaa !9
  %38 = getelementptr inbounds nuw %struct._zval_struct, ptr %37, i32 0, i32 0
  %39 = load ptr, ptr %38, align 8, !tbaa !20
  %40 = getelementptr inbounds nuw %struct._zend_object, ptr %39, i32 0, i32 3
  %41 = load ptr, ptr %40, align 8, !tbaa !61
  %42 = load ptr, ptr %8, align 8, !tbaa !17
  %43 = getelementptr inbounds nuw %struct.anon.3, ptr %42, i32 0, i32 4
  %44 = load ptr, ptr %43, align 8, !tbaa !20
  %45 = call zeroext i1 @instanceof_function(ptr noundef %41, ptr noundef %44)
  br i1 %45, label %68, label %46

46:                                               ; preds = %36
  %47 = load ptr, ptr %8, align 8, !tbaa !17
  %48 = getelementptr inbounds nuw %struct.anon.3, ptr %47, i32 0, i32 4
  %49 = load ptr, ptr %48, align 8, !tbaa !20
  %50 = getelementptr inbounds nuw %struct._zend_class_entry, ptr %49, i32 0, i32 1
  %51 = load ptr, ptr %50, align 8, !tbaa !72
  %52 = getelementptr inbounds nuw %struct._zend_string, ptr %51, i32 0, i32 3
  %53 = getelementptr inbounds [1 x i8], ptr %52, i64 0, i64 0
  %54 = load ptr, ptr %8, align 8, !tbaa !17
  %55 = getelementptr inbounds nuw %struct.anon.3, ptr %54, i32 0, i32 3
  %56 = load ptr, ptr %55, align 8, !tbaa !20
  %57 = getelementptr inbounds nuw %struct._zend_string, ptr %56, i32 0, i32 3
  %58 = getelementptr inbounds [1 x i8], ptr %57, i64 0, i64 0
  %59 = load ptr, ptr %6, align 8, !tbaa !9
  %60 = getelementptr inbounds nuw %struct._zval_struct, ptr %59, i32 0, i32 0
  %61 = load ptr, ptr %60, align 8, !tbaa !20
  %62 = getelementptr inbounds nuw %struct._zend_object, ptr %61, i32 0, i32 3
  %63 = load ptr, ptr %62, align 8, !tbaa !61
  %64 = getelementptr inbounds nuw %struct._zend_class_entry, ptr %63, i32 0, i32 1
  %65 = load ptr, ptr %64, align 8, !tbaa !72
  %66 = getelementptr inbounds nuw %struct._zend_string, ptr %65, i32 0, i32 3
  %67 = getelementptr inbounds [1 x i8], ptr %66, i64 0, i64 0
  call void (i32, ptr, ...) @zend_error(i32 noundef 2, ptr noundef @.str.4, ptr noundef %53, ptr noundef %58, ptr noundef %67)
  store i1 false, ptr %4, align 1
  store i32 1, ptr %10, align 4
  br label %141

68:                                               ; preds = %36, %31, %28
  br label %102

69:                                               ; preds = %3
  %70 = load i8, ptr %9, align 1, !tbaa !23, !range !54, !noundef !55
  %71 = trunc i8 %70 to i1
  br i1 %71, label %72, label %84

72:                                               ; preds = %69
  %73 = load ptr, ptr %8, align 8, !tbaa !17
  %74 = getelementptr inbounds nuw %struct.anon.3, ptr %73, i32 0, i32 4
  %75 = load ptr, ptr %74, align 8, !tbaa !20
  %76 = icmp ne ptr %75, null
  br i1 %76, label %77, label %84

77:                                               ; preds = %72
  %78 = load ptr, ptr %8, align 8, !tbaa !17
  %79 = getelementptr inbounds nuw %struct.anon.3, ptr %78, i32 0, i32 2
  %80 = load i32, ptr %79, align 4, !tbaa !20
  %81 = and i32 %80, 16
  %82 = icmp ne i32 %81, 0
  br i1 %82, label %84, label %83

83:                                               ; preds = %77
  call void (i32, ptr, ...) @zend_error(i32 noundef 2, ptr noundef @.str.5)
  store i1 false, ptr %4, align 1
  store i32 1, ptr %10, align 4
  br label %141

84:                                               ; preds = %77, %72, %69
  %85 = load i8, ptr %9, align 1, !tbaa !23, !range !54, !noundef !55
  %86 = trunc i8 %85 to i1
  br i1 %86, label %100, label %87

87:                                               ; preds = %84
  %88 = load ptr, ptr %5, align 8, !tbaa !40
  %89 = getelementptr inbounds nuw %struct._zend_closure, ptr %88, i32 0, i32 2
  %90 = call zeroext i8 @zval_get_type(ptr noundef %89)
  %91 = zext i8 %90 to i32
  %92 = icmp eq i32 %91, 0
  br i1 %92, label %100, label %93

93:                                               ; preds = %87
  %94 = load ptr, ptr %8, align 8, !tbaa !17
  %95 = getelementptr inbounds nuw %struct.anon.3, ptr %94, i32 0, i32 2
  %96 = load i32, ptr %95, align 4, !tbaa !20
  %97 = and i32 %96, 131072
  %98 = icmp ne i32 %97, 0
  br i1 %98, label %99, label %100

99:                                               ; preds = %93
  call void (i32, ptr, ...) @zend_error(i32 noundef 2, ptr noundef @.str.6)
  store i1 false, ptr %4, align 1
  store i32 1, ptr %10, align 4
  br label %141

100:                                              ; preds = %93, %87, %84
  br label %101

101:                                              ; preds = %100
  br label %102

102:                                              ; preds = %101, %68
  %103 = load ptr, ptr %7, align 8, !tbaa !47
  %104 = icmp ne ptr %103, null
  br i1 %104, label %105, label %123

105:                                              ; preds = %102
  %106 = load ptr, ptr %7, align 8, !tbaa !47
  %107 = load ptr, ptr %8, align 8, !tbaa !17
  %108 = getelementptr inbounds nuw %struct.anon.3, ptr %107, i32 0, i32 4
  %109 = load ptr, ptr %108, align 8, !tbaa !20
  %110 = icmp ne ptr %106, %109
  br i1 %110, label %111, label %123

111:                                              ; preds = %105
  %112 = load ptr, ptr %7, align 8, !tbaa !47
  %113 = getelementptr inbounds nuw %struct._zend_class_entry, ptr %112, i32 0, i32 0
  %114 = load i8, ptr %113, align 8, !tbaa !83
  %115 = sext i8 %114 to i32
  %116 = icmp eq i32 %115, 1
  br i1 %116, label %117, label %123

117:                                              ; preds = %111
  %118 = load ptr, ptr %7, align 8, !tbaa !47
  %119 = getelementptr inbounds nuw %struct._zend_class_entry, ptr %118, i32 0, i32 1
  %120 = load ptr, ptr %119, align 8, !tbaa !72
  %121 = getelementptr inbounds nuw %struct._zend_string, ptr %120, i32 0, i32 3
  %122 = getelementptr inbounds [1 x i8], ptr %121, i64 0, i64 0
  call void (i32, ptr, ...) @zend_error(i32 noundef 2, ptr noundef @.str.7, ptr noundef %122)
  store i1 false, ptr %4, align 1
  store i32 1, ptr %10, align 4
  br label %141

123:                                              ; preds = %111, %105, %102
  %124 = load i8, ptr %9, align 1, !tbaa !23, !range !54, !noundef !55
  %125 = trunc i8 %124 to i1
  br i1 %125, label %126, label %140

126:                                              ; preds = %123
  %127 = load ptr, ptr %7, align 8, !tbaa !47
  %128 = load ptr, ptr %8, align 8, !tbaa !17
  %129 = getelementptr inbounds nuw %struct.anon.3, ptr %128, i32 0, i32 4
  %130 = load ptr, ptr %129, align 8, !tbaa !20
  %131 = icmp ne ptr %127, %130
  br i1 %131, label %132, label %140

132:                                              ; preds = %126
  %133 = load ptr, ptr %8, align 8, !tbaa !17
  %134 = getelementptr inbounds nuw %struct.anon.3, ptr %133, i32 0, i32 4
  %135 = load ptr, ptr %134, align 8, !tbaa !20
  %136 = icmp eq ptr %135, null
  br i1 %136, label %137, label %138

137:                                              ; preds = %132
  call void (i32, ptr, ...) @zend_error(i32 noundef 2, ptr noundef @.str.8)
  br label %139

138:                                              ; preds = %132
  call void (i32, ptr, ...) @zend_error(i32 noundef 2, ptr noundef @.str.9)
  br label %139

139:                                              ; preds = %138, %137
  store i1 false, ptr %4, align 1
  store i32 1, ptr %10, align 4
  br label %141

140:                                              ; preds = %126, %123
  store i1 true, ptr %4, align 1
  store i32 1, ptr %10, align 4
  br label %141

141:                                              ; preds = %140, %139, %117, %99, %83, %46, %27
  call void @llvm.lifetime.end.p0(i64 1, ptr %9) #11
  call void @llvm.lifetime.end.p0(i64 8, ptr %8) #11
  %142 = load i1, ptr %4, align 1
  ret i1 %142
}