; Function Attrs: nounwind uwtable
define internal fastcc noundef zeroext i1 @zend_valid_closure_binding(ptr noundef readonly captures(none) %0, ptr noundef readonly captures(address_is_null) %1, ptr noundef readonly captures(address) %2) unnamed_addr #0 {
  %4 = getelementptr inbounds nuw i8, ptr %0, i64 60
  %5 = load i32, ptr %4, align 4, !tbaa !15
  %6 = and i32 %5, 8388608
  %.not = icmp eq i32 %6, 0
  %.not30 = icmp eq ptr %1, null
  br i1 %.not30, label %34, label %7

7:                                                ; preds = %3
  %8 = and i32 %5, 16
  %.not34 = icmp eq i32 %8, 0
  br i1 %.not34, label %10, label %9

9:                                                ; preds = %7
  tail call void (i32, ptr, ...) @zend_error(i32 noundef 2, ptr noundef nonnull @.str.3) #13
  br label %63

10:                                               ; preds = %7
  br i1 %.not, label %instanceof_function.exit.thread, label %11

11:                                               ; preds = %10
  %12 = getelementptr inbounds nuw i8, ptr %0, i64 72
  %13 = load ptr, ptr %12, align 8, !tbaa !15
  %.not35 = icmp eq ptr %13, null
  br i1 %.not35, label %instanceof_function.exit.thread, label %14

14:                                               ; preds = %11
  %15 = load ptr, ptr %1, align 8, !tbaa !15
  %16 = getelementptr inbounds nuw i8, ptr %15, i64 16
  %17 = load ptr, ptr %16, align 8, !tbaa !36
  %18 = icmp eq ptr %17, %13
  br i1 %18, label %instanceof_function.exit.thread, label %instanceof_function.exit

instanceof_function.exit:                         ; preds = %14
  %19 = tail call zeroext i1 @instanceof_function_slow(ptr noundef %17, ptr noundef nonnull %13) #13
  br i1 %19, label %instanceof_function.exit.thread, label %20

20:                                               ; preds = %instanceof_function.exit
  %21 = load ptr, ptr %12, align 8, !tbaa !15
  %22 = getelementptr inbounds nuw i8, ptr %21, i64 8
  %23 = load ptr, ptr %22, align 8, !tbaa !46
  %24 = getelementptr inbounds nuw i8, ptr %23, i64 24
  %25 = getelementptr inbounds nuw i8, ptr %0, i64 64
  %26 = load ptr, ptr %25, align 8, !tbaa !15
  %27 = getelementptr inbounds nuw i8, ptr %26, i64 24
  %28 = load ptr, ptr %1, align 8, !tbaa !15
  %29 = getelementptr inbounds nuw i8, ptr %28, i64 16
  %30 = load ptr, ptr %29, align 8, !tbaa !36
  %31 = getelementptr inbounds nuw i8, ptr %30, i64 8
  %32 = load ptr, ptr %31, align 8, !tbaa !46
  %33 = getelementptr inbounds nuw i8, ptr %32, i64 24
  tail call void (i32, ptr, ...) @zend_error(i32 noundef 2, ptr noundef nonnull @.str.4, ptr noundef nonnull %24, ptr noundef nonnull %27, ptr noundef nonnull %33) #13
  br label %63

34:                                               ; preds = %3
  br i1 %.not, label %.critedge, label %35

35:                                               ; preds = %34
  %36 = getelementptr inbounds nuw i8, ptr %0, i64 72
  %37 = load ptr, ptr %36, align 8, !tbaa !15
  %.not31 = icmp ne ptr %37, null
  %38 = and i32 %5, 16
  %.not32 = icmp eq i32 %38, 0
  %or.cond = select i1 %.not31, i1 %.not32, i1 false
  br i1 %or.cond, label %39, label %instanceof_function.exit.thread

39:                                               ; preds = %35
  tail call void (i32, ptr, ...) @zend_error(i32 noundef 2, ptr noundef nonnull @.str.5) #13
  br label %63

.critedge:                                        ; preds = %34
  %40 = getelementptr inbounds nuw i8, ptr %0, i64 320
  %41 = load i8, ptr %40, align 8, !tbaa !15
  %42 = icmp eq i8 %41, 0
  %43 = and i32 %5, 131072
  %.not33 = icmp eq i32 %43, 0
  %or.cond39 = select i1 %42, i1 true, i1 %.not33
  br i1 %or.cond39, label %instanceof_function.exit.thread, label %44

44:                                               ; preds = %.critedge
  tail call void (i32, ptr, ...) @zend_error(i32 noundef 2, ptr noundef nonnull @.str.6) #13
  br label %63

instanceof_function.exit.thread:                  ; preds = %14, %35, %.critedge, %10, %11, %instanceof_function.exit
  %.not36 = icmp eq ptr %2, null
  br i1 %.not36, label %55, label %45

45:                                               ; preds = %instanceof_function.exit.thread
  %46 = getelementptr inbounds nuw i8, ptr %0, i64 72
  %47 = load ptr, ptr %46, align 8, !tbaa !15
  %.not37 = icmp eq ptr %2, %47
  br i1 %.not37, label %55, label %48

48:                                               ; preds = %45
  %49 = load i8, ptr %2, align 8, !tbaa !58
  %50 = icmp eq i8 %49, 1
  br i1 %50, label %51, label %55

51:                                               ; preds = %48
  %52 = getelementptr inbounds nuw i8, ptr %2, i64 8
  %53 = load ptr, ptr %52, align 8, !tbaa !46
  %54 = getelementptr inbounds nuw i8, ptr %53, i64 24
  tail call void (i32, ptr, ...) @zend_error(i32 noundef 2, ptr noundef nonnull @.str.7, ptr noundef nonnull %54) #13
  br label %63

55:                                               ; preds = %48, %45, %instanceof_function.exit.thread
  br i1 %.not, label %63, label %56

56:                                               ; preds = %55
  %57 = getelementptr inbounds nuw i8, ptr %0, i64 72
  %58 = load ptr, ptr %57, align 8, !tbaa !15
  %.not38 = icmp eq ptr %2, %58
  br i1 %.not38, label %63, label %59

59:                                               ; preds = %56
  %60 = icmp eq ptr %58, null
  br i1 %60, label %61, label %62

61:                                               ; preds = %59
  tail call void (i32, ptr, ...) @zend_error(i32 noundef 2, ptr noundef nonnull @.str.8) #13
  br label %63

62:                                               ; preds = %59
  tail call void (i32, ptr, ...) @zend_error(i32 noundef 2, ptr noundef nonnull @.str.9) #13
  br label %63

63:                                               ; preds = %55, %56, %61, %62, %51, %44, %39, %20, %9
  %.0 = phi i1 [ false, %9 ], [ false, %51 ], [ false, %20 ], [ false, %44 ], [ false, %39 ], [ false, %62 ], [ false, %61 ], [ true, %56 ], [ true, %55 ]
  ret i1 %.0
}